target datalayout = "e-m:e-p270:32:32-p271:32:32-p272:64:64-i64:64-i128:128-f80:128-n8:16:32:64-S128"
target triple = "x86_64-unknown-linux-gnu"

%"class.OpenColorIO_v2_4dev::GammaBasicOpCPU" = type { %"class.OpenColorIO_v2_4dev::OpCPU", float, float, float, float }
%"class.OpenColorIO_v2_4dev::OpCPU" = type { ptr }

; Function Attrs: mustprogress nounwind uwtable
define linkonce_odr noundef float @_ZSt3powff(float noundef %__x, float noundef %__y) #5 comdat {
entry:
  %__x.addr = alloca float, align 4
  %__y.addr = alloca float, align 4
  store float %__x, ptr %__x.addr, align 4
  store float %__y, ptr %__y.addr, align 4
  %0 = load float, ptr %__x.addr, align 4
  %1 = load float, ptr %__y.addr, align 4
  %call = call float @powf(float noundef %0, float noundef %1) #3
  ret float %call
}

; Function Attrs: mustprogress nounwind uwtable
define linkonce_odr noundef nonnull align 4 dereferenceable(4) ptr @_ZSt3maxIfERKT_S2_S2_(ptr noundef nonnull align 4 dereferenceable(4) %__a, ptr noundef nonnull align 4 dereferenceable(4) %__b) #5 comdat {
entry:
  %retval = alloca ptr, align 8
  %__a.addr = alloca ptr, align 8
  %__b.addr = alloca ptr, align 8
  store ptr %__a, ptr %__a.addr, align 8
  store ptr %__b, ptr %__b.addr, align 8
  %0 = load ptr, ptr %__a.addr, align 8
  %1 = load float, ptr %0, align 4
  %2 = load ptr, ptr %__b.addr, align 8
  %3 = load float, ptr %2, align 4
  %cmp = fcmp olt float %1, %3
  br i1 %cmp, label %if.then, label %if.end

if.then:                                          ; preds = %entry
  %4 = load ptr, ptr %__b.addr, align 8
  store ptr %4, ptr %retval, align 8
  br label %return

if.end:                                           ; preds = %entry
  %5 = load ptr, ptr %__a.addr, align 8
  store ptr %5, ptr %retval, align 8
  br label %return

return:                                           ; preds = %if.end, %if.then
  %6 = load ptr, ptr %retval, align 8
  ret ptr %6
}

; Function Attrs: mustprogress uwtable
define hidden void @_ZNK19OpenColorIO_v2_4dev15GammaBasicOpCPU5applyEPKvPvl(ptr noundef nonnull align 8 dereferenceable(24) %this, ptr noundef %inImg, ptr noundef %outImg, i64 noundef %numPixels) unnamed_addr #6 align 2 {
entry:
  %this.addr = alloca ptr, align 8
  %inImg.addr = alloca ptr, align 8
  %outImg.addr = alloca ptr, align 8
  %numPixels.addr = alloca i64, align 8
  %in = alloca ptr, align 8
  %out = alloca ptr, align 8
  %idx = alloca i64, align 8
  %pixel = alloca [4 x float], align 16
  %ref.tmp = alloca float, align 4
  %ref.tmp2 = alloca float, align 4
  %ref.tmp6 = alloca float, align 4
  %ref.tmp10 = alloca float, align 4
  store ptr %this, ptr %this.addr, align 8
  store ptr %inImg, ptr %inImg.addr, align 8
  store ptr %outImg, ptr %outImg.addr, align 8
  store i64 %numPixels, ptr %numPixels.addr, align 8
  %this1 = load ptr, ptr %this.addr, align 8
  %0 = load ptr, ptr %inImg.addr, align 8
  store ptr %0, ptr %in, align 8
  %1 = load ptr, ptr %outImg.addr, align 8
  store ptr %1, ptr %out, align 8
  store i64 0, ptr %idx, align 8
  br label %for.cond

for.cond:                                         ; preds = %for.inc, %entry
  %2 = load i64, ptr %idx, align 8
  %3 = load i64, ptr %numPixels.addr, align 8
  %cmp = icmp slt i64 %2, %3
  br i1 %cmp, label %for.body, label %for.end

for.body:                                         ; preds = %for.cond
  %arrayinit.begin = getelementptr inbounds [4 x float], ptr %pixel, i64 0, i64 0
  store float 0.000000e+00, ptr %ref.tmp, align 4
  %4 = load ptr, ptr %in, align 8
  %arrayidx = getelementptr inbounds float, ptr %4, i64 0
  %call = call noundef nonnull align 4 dereferenceable(4) ptr @_ZSt3maxIfERKT_S2_S2_(ptr noundef nonnull align 4 dereferenceable(4) %ref.tmp, ptr noundef nonnull align 4 dereferenceable(4) %arrayidx)
  %5 = load float, ptr %call, align 4
  store float %5, ptr %arrayinit.begin, align 4
  %arrayinit.element = getelementptr inbounds float, ptr %arrayinit.begin, i64 1
  store float 0.000000e+00, ptr %ref.tmp2, align 4
  %6 = load ptr, ptr %in, align 8
  %arrayidx3 = getelementptr inbounds float, ptr %6, i64 1
  %call4 = call noundef nonnull align 4 dereferenceable(4) ptr @_ZSt3maxIfERKT_S2_S2_(ptr noundef nonnull align 4 dereferenceable(4) %ref.tmp2, ptr noundef nonnull align 4 dereferenceable(4) %arrayidx3)
  %7 = load float, ptr %call4, align 4
  store float %7, ptr %arrayinit.element, align 4
  %arrayinit.element5 = getelementptr inbounds float, ptr %arrayinit.element, i64 1
  store float 0.000000e+00, ptr %ref.tmp6, align 4
  %8 = load ptr, ptr %in, align 8
  %arrayidx7 = getelementptr inbounds float, ptr %8, i64 2
  %call8 = call noundef nonnull align 4 dereferenceable(4) ptr @_ZSt3maxIfERKT_S2_S2_(ptr noundef nonnull align 4 dereferenceable(4) %ref.tmp6, ptr noundef nonnull align 4 dereferenceable(4) %arrayidx7)
  %9 = load float, ptr %call8, align 4
  store float %9, ptr %arrayinit.element5, align 4
  %arrayinit.element9 = getelementptr inbounds float, ptr %arrayinit.element5, i64 1
  store float 0.000000e+00, ptr %ref.tmp10, align 4
  %10 = load ptr, ptr %in, align 8
  %arrayidx11 = getelementptr inbounds float, ptr %10, i64 3
  %call12 = call noundef nonnull align 4 dereferenceable(4) ptr @_ZSt3maxIfERKT_S2_S2_(ptr noundef nonnull align 4 dereferenceable(4) %ref.tmp10, ptr noundef nonnull align 4 dereferenceable(4) %arrayidx11)
  %11 = load float, ptr %call12, align 4
  store float %11, ptr %arrayinit.element9, align 4
  %arrayidx13 = getelementptr inbounds [4 x float], ptr %pixel, i64 0, i64 0
  %12 = load float, ptr %arrayidx13, align 16
  %m_redGamma = getelementptr inbounds %"class.OpenColorIO_v2_4dev::GammaBasicOpCPU", ptr %this1, i32 0, i32 1
  %13 = load float, ptr %m_redGamma, align 8
  %call14 = call noundef float @_ZSt3powff(float noundef %12, float noundef %13)
  %14 = load ptr, ptr %out, align 8
  %arrayidx15 = getelementptr inbounds float, ptr %14, i64 0
  store float %call14, ptr %arrayidx15, align 4
  %arrayidx16 = getelementptr inbounds [4 x float], ptr %pixel, i64 0, i64 1
  %15 = load float, ptr %arrayidx16, align 4
  %m_grnGamma = getelementptr inbounds %"class.OpenColorIO_v2_4dev::GammaBasicOpCPU", ptr %this1, i32 0, i32 2
  %16 = load float, ptr %m_grnGamma, align 4
  %call17 = call noundef float @_ZSt3powff(float noundef %15, float noundef %16)
  %17 = load ptr, ptr %out, align 8
  %arrayidx18 = getelementptr inbounds float, ptr %17, i64 1
  store float %call17, ptr %arrayidx18, align 4
  %arrayidx19 = getelementptr inbounds [4 x float], ptr %pixel, i64 0, i64 2
  %18 = load float, ptr %arrayidx19, align 8
  %m_bluGamma = getelementptr inbounds %"class.OpenColorIO_v2_4dev::GammaBasicOpCPU", ptr %this1, i32 0, i32 3
  %19 = load float, ptr %m_bluGamma, align 8
  %call20 = call noundef float @_ZSt3powff(float noundef %18, float noundef %19)
  %20 = load ptr, ptr %out, align 8
  %arrayidx21 = getelementptr inbounds float, ptr %20, i64 2
  store float %call20, ptr %arrayidx21, align 4
  %arrayidx22 = getelementptr inbounds [4 x float], ptr %pixel, i64 0, i64 3
  %21 = load float, ptr %arrayidx22, align 4
  %m_alpGamma = getelementptr inbounds %"class.OpenColorIO_v2_4dev::GammaBasicOpCPU", ptr %this1, i32 0, i32 4
  %22 = load float, ptr %m_alpGamma, align 4
  %call23 = call noundef float @_ZSt3powff(float noundef %21, float noundef %22)
  %23 = load ptr, ptr %out, align 8
  %arrayidx24 = getelementptr inbounds float, ptr %23, i64 3
  store float %call23, ptr %arrayidx24, align 4
  %24 = load ptr, ptr %in, align 8
  %add.ptr = getelementptr inbounds float, ptr %24, i64 4
  store ptr %add.ptr, ptr %in, align 8
  %25 = load ptr, ptr %out, align 8
  %add.ptr25 = getelementptr inbounds float, ptr %25, i64 4
  store ptr %add.ptr25, ptr %out, align 8
  br label %for.inc

for.inc:                                          ; preds = %for.body
  %26 = load i64, ptr %idx, align 8
  %inc = add nsw i64 %26, 1
  store i64 %inc, ptr %idx, align 8
  br label %for.cond, !llvm.loop !6

for.end:                                          ; preds = %for.cond
  ret void
}