; Function Attrs: mustprogress nofree nounwind memory(readwrite, inaccessiblemem: write) uwtable
define hidden void @_ZNK19OpenColorIO_v2_4dev15GammaBasicOpCPU5applyEPKvPvl(ptr nocapture noundef nonnull readonly align 8 dereferenceable(24) %this, ptr nocapture noundef readonly %inImg, ptr nocapture noundef writeonly %outImg, i64 noundef %numPixels) unnamed_addr #7 align 2 {
entry:
  %cmp25 = icmp sgt i64 %numPixels, 0
  br i1 %cmp25, label %for.body.lr.ph, label %for.end

for.body.lr.ph:                                   ; preds = %entry
  %m_redGamma = getelementptr inbounds i8, ptr %this, i64 8
  %m_grnGamma = getelementptr inbounds i8, ptr %this, i64 12
  %m_bluGamma = getelementptr inbounds i8, ptr %this, i64 16
  %m_alpGamma = getelementptr inbounds i8, ptr %this, i64 20
  br label %for.body

for.body:                                         ; preds = %for.body.lr.ph, %for.body
  %in.028 = phi ptr [ %inImg, %for.body.lr.ph ], [ %add.ptr, %for.body ]
  %out.027 = phi ptr [ %outImg, %for.body.lr.ph ], [ %add.ptr25, %for.body ]
  %idx.026 = phi i64 [ 0, %for.body.lr.ph ], [ %inc, %for.body ]
  %0 = load float, ptr %in.028, align 4
  %cmp.i = fcmp ogt float %0, 0.000000e+00
  %.sroa.speculated24 = select i1 %cmp.i, float %0, float 0.000000e+00
  %arrayidx3 = getelementptr inbounds i8, ptr %in.028, i64 4
  %1 = load float, ptr %arrayidx3, align 4
  %cmp.i10 = fcmp ogt float %1, 0.000000e+00
  %.sroa.speculated22 = select i1 %cmp.i10, float %1, float 0.000000e+00
  %arrayidx7 = getelementptr inbounds i8, ptr %in.028, i64 8
  %2 = load float, ptr %arrayidx7, align 4
  %cmp.i12 = fcmp ogt float %2, 0.000000e+00
  %.sroa.speculated20 = select i1 %cmp.i12, float %2, float 0.000000e+00
  %arrayidx11 = getelementptr inbounds i8, ptr %in.028, i64 12
  %3 = load float, ptr %arrayidx11, align 4
  %cmp.i14 = fcmp ogt float %3, 0.000000e+00
  %.sroa.speculated = select i1 %cmp.i14, float %3, float 0.000000e+00
  %4 = load float, ptr %m_redGamma, align 8
  %call.i = tail call noundef float @powf(float noundef %.sroa.speculated24, float noundef %4) #19
  store float %call.i, ptr %out.027, align 4
  %5 = load float, ptr %m_grnGamma, align 4
  %call.i16 = tail call noundef float @powf(float noundef %.sroa.speculated22, float noundef %5) #19
  %arrayidx18 = getelementptr inbounds i8, ptr %out.027, i64 4
  store float %call.i16, ptr %arrayidx18, align 4
  %6 = load float, ptr %m_bluGamma, align 8
  %call.i17 = tail call noundef float @powf(float noundef %.sroa.speculated20, float noundef %6) #19
  %arrayidx21 = getelementptr inbounds i8, ptr %out.027, i64 8
  store float %call.i17, ptr %arrayidx21, align 4
  %7 = load float, ptr %m_alpGamma, align 4
  %call.i18 = tail call noundef float @powf(float noundef %.sroa.speculated, float noundef %7) #19
  %arrayidx24 = getelementptr inbounds i8, ptr %out.027, i64 12
  store float %call.i18, ptr %arrayidx24, align 4
  %add.ptr = getelementptr inbounds i8, ptr %in.028, i64 16
  %add.ptr25 = getelementptr inbounds i8, ptr %out.027, i64 16
  %inc = add nuw nsw i64 %idx.026, 1
  %exitcond.not = icmp eq i64 %inc, %numPixels
  br i1 %exitcond.not, label %for.end, label %for.body, !llvm.loop !49

for.end:                                          ; preds = %for.body, %entry
  ret void
}